(dp0
S'svm_linear'
p1
(dp2
F0.5
(lp3
cnumpy.core.multiarray
scalar
p4
(cnumpy
dtype
p5
(S'f8'
p6
I0
I1
tp7
Rp8
(I3
S'<'
p9
NNNI-1
I-1
I0
tp10
bS'\x00\x00\x00\x00\x00\x00\xf0?'
p11
tp12
Rp13
aF0.006318092346191406
asF1.0
(lp14
g4
(g8
S'\x00\x00\x00\x00\x00\x00\xf0?'
p15
tp16
Rp17
aF0.0005230903625488281
asF5.0
(lp18
g4
(g8
S'\x00\x00\x00\x00\x00\x00\xf0?'
p19
tp20
Rp21
aF0.0005619525909423828
ass.